target datalayout = "e-m:e-p270:32:32-p271:32:32-p272:64:64-i64:64-i128:128-f80:128-n8:16:32:64-S128"
target triple = "x86_64-pc-linux-gnu"

%struct.add_to_listjobs_list_args = type { ptr, ptr }

@stderr = external global ptr, align 8
@mime_type = external global ptr, align 8
@.str.26 = private unnamed_addr constant [36 x i8] c"No slurmstepd's found on this node\0A\00", align 1
@.str.27 = private unnamed_addr constant [7 x i8] c"JOBID\0A\00", align 1

; Function Attrs: nounwind uwtable
define dso_local void @scontrol_list_jobs(i32 noundef %0, ptr noundef %1) #0 {
  %3 = alloca i32, align 4
  %4 = alloca ptr, align 8
  %5 = alloca ptr, align 8
  %6 = alloca ptr, align 8
  %7 = alloca ptr, align 8
  %8 = alloca ptr, align 8
  %9 = alloca %struct.add_to_listjobs_list_args, align 8
  store i32 %0, ptr %3, align 4
  store ptr %1, ptr %4, align 8
  call void @llvm.lifetime.start.p0(i64 8, ptr %5) #9
  store ptr null, ptr %5, align 8
  call void @llvm.lifetime.start.p0(i64 8, ptr %6) #9
  store ptr null, ptr %6, align 8
  call void @llvm.lifetime.start.p0(i64 8, ptr %7) #9
  store ptr null, ptr %7, align 8
  call void @llvm.lifetime.start.p0(i64 8, ptr %8) #9
  store ptr null, ptr %8, align 8
  call void @llvm.lifetime.start.p0(i64 16, ptr %9) #9
  call void @llvm.memset.p0.i64(ptr align 8 %9, i8 0, i64 16, i1 false)
  %10 = load i32, ptr %3, align 4
  %11 = icmp ne i32 %10, 0
  br i1 %11, label %12, label %16

12:                                               ; preds = %2
  %13 = load ptr, ptr %4, align 8
  %14 = getelementptr inbounds ptr, ptr %13, i64 1
  %15 = load ptr, ptr %14, align 8
  store ptr %15, ptr %5, align 8
  br label %16

16:                                               ; preds = %12, %2
  %17 = load ptr, ptr %5, align 8
  %18 = call ptr @stepd_available(ptr noundef null, ptr noundef %17)
  store ptr %18, ptr %6, align 8
  %19 = load ptr, ptr %6, align 8
  %20 = icmp ne ptr %19, null
  br i1 %20, label %21, label %25

21:                                               ; preds = %16
  %22 = load ptr, ptr %6, align 8
  %23 = call i32 @list_count(ptr noundef %22)
  %24 = icmp ne i32 %23, 0
  br i1 %24, label %35, label %25

25:                                               ; preds = %21, %16
  %26 = load ptr, ptr @mime_type, align 8
  %27 = icmp ne ptr %26, null
  br i1 %27, label %28, label %31

28:                                               ; preds = %25
  %29 = load i32, ptr %3, align 4
  %30 = load ptr, ptr %4, align 8
  call void @_dump_listjobs(ptr noundef null, i32 noundef %29, ptr noundef %30)
  br label %34

31:                                               ; preds = %25
  %32 = load ptr, ptr @stderr, align 8
  %33 = call i32 (ptr, ptr, ...) @fprintf(ptr noundef %32, ptr noundef @.str.26) #9
  br label %34

34:                                               ; preds = %31, %28
  br label %54

35:                                               ; preds = %21
  %36 = call ptr @list_create(ptr noundef @xfree_ptr)
  store ptr %36, ptr %7, align 8
  %37 = call ptr @list_create(ptr noundef @xfree_ptr)
  store ptr %37, ptr %8, align 8
  %38 = load ptr, ptr %7, align 8
  %39 = getelementptr inbounds nuw %struct.add_to_listjobs_list_args, ptr %9, i32 0, i32 1
  store ptr %38, ptr %39, align 8
  %40 = load ptr, ptr %8, align 8
  %41 = getelementptr inbounds nuw %struct.add_to_listjobs_list_args, ptr %9, i32 0, i32 0
  store ptr %40, ptr %41, align 8
  %42 = load ptr, ptr %6, align 8
  %43 = call i32 @list_for_each(ptr noundef %42, ptr noundef @_add_to_listjobs_list, ptr noundef %9)
  %44 = load ptr, ptr @mime_type, align 8
  %45 = icmp ne ptr %44, null
  br i1 %45, label %46, label %50

46:                                               ; preds = %35
  %47 = load ptr, ptr %7, align 8
  %48 = load i32, ptr %3, align 4
  %49 = load ptr, ptr %4, align 8
  call void @_dump_listjobs(ptr noundef %47, i32 noundef %48, ptr noundef %49)
  br label %54

50:                                               ; preds = %35
  %51 = call i32 (ptr, ...) @printf(ptr noundef @.str.27)
  %52 = load ptr, ptr %7, align 8
  %53 = call i32 @list_for_each(ptr noundef %52, ptr noundef @_print_listjobs_info, ptr noundef null)
  br label %54

54:                                               ; preds = %50, %46, %34
  br label %55

55:                                               ; preds = %54
  %56 = load ptr, ptr %7, align 8
  %57 = icmp ne ptr %56, null
  br i1 %57, label %58, label %60

58:                                               ; preds = %55
  %59 = load ptr, ptr %7, align 8
  call void @list_destroy(ptr noundef %59)
  br label %60

60:                                               ; preds = %58, %55
  store ptr null, ptr %7, align 8
  br label %61

61:                                               ; preds = %60
  br label %62

62:                                               ; preds = %61
  br label %63

63:                                               ; preds = %62
  %64 = load ptr, ptr %8, align 8
  %65 = icmp ne ptr %64, null
  br i1 %65, label %66, label %68

66:                                               ; preds = %63
  %67 = load ptr, ptr %8, align 8
  call void @list_destroy(ptr noundef %67)
  br label %68

68:                                               ; preds = %66, %63
  store ptr null, ptr %8, align 8
  br label %69

69:                                               ; preds = %68
  br label %70

70:                                               ; preds = %69
  br label %71

71:                                               ; preds = %70
  %72 = load ptr, ptr %6, align 8
  %73 = icmp ne ptr %72, null
  br i1 %73, label %74, label %76

74:                                               ; preds = %71
  %75 = load ptr, ptr %6, align 8
  call void @list_destroy(ptr noundef %75)
  br label %76

76:                                               ; preds = %74, %71
  store ptr null, ptr %6, align 8
  br label %77

77:                                               ; preds = %76
  br label %78

78:                                               ; preds = %77
  call void @llvm.lifetime.end.p0(i64 16, ptr %9) #9
  call void @llvm.lifetime.end.p0(i64 8, ptr %8) #9
  call void @llvm.lifetime.end.p0(i64 8, ptr %7) #9
  call void @llvm.lifetime.end.p0(i64 8, ptr %6) #9
  call void @llvm.lifetime.end.p0(i64 8, ptr %5) #9
  ret void
}