; Function Attrs: nounwind uwtable
define dso_local void @scontrol_list_jobs(i32 noundef %0, ptr noundef %1) local_unnamed_addr #0 {
  %3 = alloca %struct.add_to_listjobs_list_args, align 8
  call void @llvm.lifetime.start.p0(i64 16, ptr nonnull %3) #16
  call void @llvm.memset.p0.i64(ptr noundef nonnull align 8 dereferenceable(16) %3, i8 0, i64 16, i1 false)
  %.not = icmp eq i32 %0, 0
  br i1 %.not, label %7, label %4

4:                                                ; preds = %2
  %5 = getelementptr inbounds nuw i8, ptr %1, i64 8
  %6 = load ptr, ptr %5, align 8
  br label %7

7:                                                ; preds = %4, %2
  %.020 = phi ptr [ %6, %4 ], [ null, %2 ]
  %8 = tail call ptr @stepd_available(ptr noundef null, ptr noundef %.020) #16
  %.not22 = icmp eq ptr %8, null
  br i1 %.not22, label %11, label %9

9:                                                ; preds = %7
  %10 = tail call i32 @list_count(ptr noundef nonnull %8) #16
  %.not23 = icmp eq i32 %10, 0
  br i1 %.not23, label %11, label %17

11:                                               ; preds = %9, %7
  %12 = load ptr, ptr @mime_type, align 8
  %.not24 = icmp eq ptr %12, null
  br i1 %.not24, label %14, label %13

13:                                               ; preds = %11
  tail call fastcc void @_dump_listjobs(ptr noundef null, i32 noundef %0, ptr noundef %1)
  br label %30

14:                                               ; preds = %11
  %15 = load ptr, ptr @stderr, align 8
  %16 = tail call i64 @fwrite(ptr nonnull @.str.26, i64 35, i64 1, ptr %15) #18
  br label %30

17:                                               ; preds = %9
  %18 = tail call ptr @list_create(ptr noundef nonnull @xfree_ptr) #16
  %19 = tail call ptr @list_create(ptr noundef nonnull @xfree_ptr) #16
  %20 = getelementptr inbounds nuw i8, ptr %3, i64 8
  store ptr %18, ptr %20, align 8
  store ptr %19, ptr %3, align 8
  %21 = call i32 @list_for_each(ptr noundef nonnull %8, ptr noundef nonnull @_add_to_listjobs_list, ptr noundef nonnull %3) #16
  %22 = load ptr, ptr @mime_type, align 8
  %.not25 = icmp eq ptr %22, null
  br i1 %.not25, label %24, label %23

23:                                               ; preds = %17
  call fastcc void @_dump_listjobs(ptr noundef %18, i32 noundef %0, ptr noundef %1)
  br label %26

24:                                               ; preds = %17
  %puts = call i32 @puts(ptr nonnull dereferenceable(1) @str.5)
  %25 = call i32 @list_for_each(ptr noundef %18, ptr noundef nonnull @_print_listjobs_info, ptr noundef null) #16
  br label %26

26:                                               ; preds = %23, %24
  %.not26 = icmp eq ptr %18, null
  br i1 %.not26, label %28, label %27

27:                                               ; preds = %26
  call void @list_destroy(ptr noundef nonnull %18) #16
  br label %28

28:                                               ; preds = %27, %26
  %.not27 = icmp eq ptr %19, null
  br i1 %.not27, label %.thread36, label %29

29:                                               ; preds = %28
  call void @list_destroy(ptr noundef nonnull %19) #16
  br label %.thread36

30:                                               ; preds = %13, %14
  br i1 %.not22, label %31, label %.thread36

.thread36:                                        ; preds = %28, %29, %30
  call void @list_destroy(ptr noundef nonnull %8) #16
  br label %31

31:                                               ; preds = %.thread36, %30
  call void @llvm.lifetime.end.p0(i64 16, ptr nonnull %3) #16
  ret void
}